target datalayout = "e-m:e-p270:32:32-p271:32:32-p272:64:64-i64:64-i128:128-f80:128-n8:16:32:64-S128"
target triple = "x86_64-pc-linux-gnu"

%"struct.(anonymous namespace)::StaticDiagInfoRec" = type <{ i16, i32, i8, i8, i16 }>
%"class.clang::DiagnosticIDs" = type { %"class.llvm::RefCountedBase", %"class.std::unique_ptr" }
%"class.llvm::RefCountedBase" = type { i32 }
%"class.std::unique_ptr" = type { %"struct.std::__uniq_ptr_data" }
%"struct.std::__uniq_ptr_data" = type { %"class.std::__uniq_ptr_impl" }
%"class.std::__uniq_ptr_impl" = type { %"class.std::tuple" }
%"class.std::tuple" = type { %"struct.std::_Tuple_impl" }
%"struct.std::_Tuple_impl" = type { %"struct.std::_Head_base.1" }
%"struct.std::_Head_base.1" = type { ptr }
%"class.clang::diag::CustomDiagInfo" = type { %"class.std::vector", %"class.std::map" }
%"class.std::vector" = type { %"struct.std::_Vector_base" }
%"struct.std::_Vector_base" = type { %"struct.std::_Vector_base<std::pair<clang::DiagnosticIDs::Level, std::__cxx11::basic_string<char>>, std::allocator<std::pair<clang::DiagnosticIDs::Level, std::__cxx11::basic_string<char>>>>::_Vector_impl" }
%"struct.std::_Vector_base<std::pair<clang::DiagnosticIDs::Level, std::__cxx11::basic_string<char>>, std::allocator<std::pair<clang::DiagnosticIDs::Level, std::__cxx11::basic_string<char>>>>::_Vector_impl" = type { %"struct.std::_Vector_base<std::pair<clang::DiagnosticIDs::Level, std::__cxx11::basic_string<char>>, std::allocator<std::pair<clang::DiagnosticIDs::Level, std::__cxx11::basic_string<char>>>>::_Vector_impl_data" }
%"struct.std::_Vector_base<std::pair<clang::DiagnosticIDs::Level, std::__cxx11::basic_string<char>>, std::allocator<std::pair<clang::DiagnosticIDs::Level, std::__cxx11::basic_string<char>>>>::_Vector_impl_data" = type { ptr, ptr, ptr }
%"class.std::map" = type { %"class.std::_Rb_tree" }
%"class.std::_Rb_tree" = type { %"struct.std::_Rb_tree<std::pair<clang::DiagnosticIDs::Level, std::__cxx11::basic_string<char>>, std::pair<const std::pair<clang::DiagnosticIDs::Level, std::__cxx11::basic_string<char>>, unsigned int>, std::_Select1st<std::pair<const std::pair<clang::DiagnosticIDs::Level, std::__cxx11::basic_string<char>>, unsigned int>>, std::less<std::pair<clang::DiagnosticIDs::Level, std::__cxx11::basic_string<char>>>>::_Rb_tree_impl" }
%"struct.std::_Rb_tree<std::pair<clang::DiagnosticIDs::Level, std::__cxx11::basic_string<char>>, std::pair<const std::pair<clang::DiagnosticIDs::Level, std::__cxx11::basic_string<char>>, unsigned int>, std::_Select1st<std::pair<const std::pair<clang::DiagnosticIDs::Level, std::__cxx11::basic_string<char>>, unsigned int>>, std::less<std::pair<clang::DiagnosticIDs::Level, std::__cxx11::basic_string<char>>>>::_Rb_tree_impl" = type { [8 x i8], %"struct.std::_Rb_tree_header" }
%"struct.std::_Rb_tree_header" = type { %"struct.std::_Rb_tree_node_base", i64 }
%"struct.std::_Rb_tree_node_base" = type { i32, ptr, ptr, ptr }
%"struct.std::pair" = type { i32, %"class.std::__cxx11::basic_string" }
%"class.std::__cxx11::basic_string" = type { %"struct.std::__cxx11::basic_string<char>::_Alloc_hider", i64, %union.anon }
%"struct.std::__cxx11::basic_string<char>::_Alloc_hider" = type { ptr }
%union.anon = type { i64, [8 x i8] }
%"class.clang::SourceLocation" = type { i32 }

; Function Attrs: mustprogress nounwind uwtable
define linkonce_odr hidden noundef nonnull align 8 dereferenceable(8) ptr @_ZNSt10_Head_baseILm0EPN5clang4diag14CustomDiagInfoELb0EE7_M_headERKS4_(ptr noundef nonnull align 8 dereferenceable(8) %0) #0 comdat align 2 {
  %2 = alloca ptr, align 8
  store ptr %0, ptr %2, align 8
  %3 = load ptr, ptr %2, align 8
  %4 = getelementptr inbounds nuw %"struct.std::_Head_base.1", ptr %3, i32 0, i32 0
  ret ptr %4
}

; Function Attrs: mustprogress nounwind uwtable
define linkonce_odr hidden noundef nonnull align 8 dereferenceable(8) ptr @_ZNSt11_Tuple_implILm0EJPN5clang4diag14CustomDiagInfoESt14default_deleteIS2_EEE7_M_headERKS6_(ptr noundef nonnull align 8 dereferenceable(8) %0) #0 comdat align 2 {
  %2 = alloca ptr, align 8
  store ptr %0, ptr %2, align 8
  %3 = load ptr, ptr %2, align 8
  %4 = call noundef nonnull align 8 dereferenceable(8) ptr @_ZNSt10_Head_baseILm0EPN5clang4diag14CustomDiagInfoELb0EE7_M_headERKS4_(ptr noundef nonnull align 8 dereferenceable(8) %3) #11
  ret ptr %4
}

; Function Attrs: mustprogress nounwind uwtable
define linkonce_odr noundef nonnull align 8 dereferenceable(8) ptr @_ZSt12__get_helperILm0EPN5clang4diag14CustomDiagInfoEJSt14default_deleteIS2_EEERKT0_RKSt11_Tuple_implIXT_EJS6_DpT1_EE(ptr noundef nonnull align 8 dereferenceable(8) %0) #0 comdat {
  %2 = alloca ptr, align 8
  store ptr %0, ptr %2, align 8
  %3 = load ptr, ptr %2, align 8
  %4 = call noundef nonnull align 8 dereferenceable(8) ptr @_ZNSt11_Tuple_implILm0EJPN5clang4diag14CustomDiagInfoESt14default_deleteIS2_EEE7_M_headERKS6_(ptr noundef nonnull align 8 dereferenceable(8) %3) #11
  ret ptr %4
}

; Function Attrs: mustprogress nounwind uwtable
define linkonce_odr noundef nonnull align 8 dereferenceable(8) ptr @_ZSt3getILm0EJPN5clang4diag14CustomDiagInfoESt14default_deleteIS2_EEERKNSt13tuple_elementIXT_ESt5tupleIJDpT0_EEE4typeERKSA_(ptr noundef nonnull align 8 dereferenceable(8) %0) #0 comdat {
  %2 = alloca ptr, align 8
  store ptr %0, ptr %2, align 8
  %3 = load ptr, ptr %2, align 8
  %4 = call noundef nonnull align 8 dereferenceable(8) ptr @_ZSt12__get_helperILm0EPN5clang4diag14CustomDiagInfoEJSt14default_deleteIS2_EEERKT0_RKSt11_Tuple_implIXT_EJS6_DpT1_EE(ptr noundef nonnull align 8 dereferenceable(8) %3) #11
  ret ptr %4
}

; Function Attrs: mustprogress nounwind uwtable
define linkonce_odr hidden noundef ptr @_ZNKSt15__uniq_ptr_implIN5clang4diag14CustomDiagInfoESt14default_deleteIS2_EE6_M_ptrEv(ptr noundef nonnull align 8 dereferenceable(8) %0) #0 comdat align 2 {
  %2 = alloca ptr, align 8
  store ptr %0, ptr %2, align 8
  %3 = load ptr, ptr %2, align 8
  %4 = getelementptr inbounds nuw %"class.std::__uniq_ptr_impl", ptr %3, i32 0, i32 0
  %5 = call noundef nonnull align 8 dereferenceable(8) ptr @_ZSt3getILm0EJPN5clang4diag14CustomDiagInfoESt14default_deleteIS2_EEERKNSt13tuple_elementIXT_ESt5tupleIJDpT0_EEE4typeERKSA_(ptr noundef nonnull align 8 dereferenceable(8) %4) #11
  %6 = load ptr, ptr %5, align 8
  ret ptr %6
}

; Function Attrs: mustprogress nounwind uwtable
define linkonce_odr hidden noundef nonnull align 8 dereferenceable(40) ptr @_ZNKSt6vectorISt4pairIN5clang13DiagnosticIDs5LevelENSt7__cxx1112basic_stringIcSt11char_traitsIcESaIcEEEESaISA_EEixEm(ptr noundef nonnull align 8 dereferenceable(24) %0, i64 noundef %1) #0 comdat align 2 {
  %3 = alloca ptr, align 8
  %4 = alloca i64, align 8
  store ptr %0, ptr %3, align 8
  store i64 %1, ptr %4, align 8
  %5 = load ptr, ptr %3, align 8
  %6 = getelementptr inbounds nuw %"struct.std::_Vector_base", ptr %5, i32 0, i32 0
  %7 = getelementptr inbounds nuw %"struct.std::_Vector_base<std::pair<clang::DiagnosticIDs::Level, std::__cxx11::basic_string<char>>, std::allocator<std::pair<clang::DiagnosticIDs::Level, std::__cxx11::basic_string<char>>>>::_Vector_impl_data", ptr %6, i32 0, i32 0
  %8 = load ptr, ptr %7, align 8
  %9 = load i64, ptr %4, align 8
  %10 = getelementptr inbounds %"struct.std::pair", ptr %8, i64 %9
  ret ptr %10
}

; Function Attrs: mustprogress nounwind uwtable
define linkonce_odr hidden noundef ptr @_ZNKSt10unique_ptrIN5clang4diag14CustomDiagInfoESt14default_deleteIS2_EE3getEv(ptr noundef nonnull align 8 dereferenceable(8) %0) #0 comdat align 2 {
  %2 = alloca ptr, align 8
  store ptr %0, ptr %2, align 8
  %3 = load ptr, ptr %2, align 8
  %4 = getelementptr inbounds nuw %"class.std::unique_ptr", ptr %3, i32 0, i32 0
  %5 = call noundef ptr @_ZNKSt15__uniq_ptr_implIN5clang4diag14CustomDiagInfoESt14default_deleteIS2_EE6_M_ptrEv(ptr noundef nonnull align 8 dereferenceable(8) %4) #11
  ret ptr %5
}

; Function Attrs: mustprogress nounwind uwtable
define internal noundef i32 @_ZL7toLevelN5clang4diag8SeverityE(i32 noundef %0) #0 {
  %2 = alloca i32, align 4
  %3 = alloca i32, align 4
  store i32 %0, ptr %3, align 4
  %4 = load i32, ptr %3, align 4
  switch i32 %4, label %10 [
    i32 1, label %5
    i32 2, label %6
    i32 3, label %7
    i32 4, label %8
    i32 5, label %9
  ]

5:                                                ; preds = %1
  store i32 0, ptr %2, align 4
  br label %11

6:                                                ; preds = %1
  store i32 2, ptr %2, align 4
  br label %11

7:                                                ; preds = %1
  store i32 3, ptr %2, align 4
  br label %11

8:                                                ; preds = %1
  store i32 4, ptr %2, align 4
  br label %11

9:                                                ; preds = %1
  store i32 5, ptr %2, align 4
  br label %11

10:                                               ; preds = %1
  unreachable

11:                                               ; preds = %9, %8, %7, %6, %5
  %12 = load i32, ptr %2, align 4
  ret i32 %12
}

; Function Attrs: mustprogress nounwind uwtable
define internal noundef i32 @_ZL19getBuiltinDiagClassj(i32 noundef %0) #0 {
  %2 = alloca i32, align 4
  %3 = alloca i32, align 4
  %4 = alloca ptr, align 8
  store i32 %0, ptr %3, align 4
  %5 = load i32, ptr %3, align 4
  %6 = call noundef ptr @_ZL11GetDiagInfoj(i32 noundef %5)
  store ptr %6, ptr %4, align 8
  %7 = load ptr, ptr %4, align 8
  %8 = icmp ne ptr %7, null
  br i1 %8, label %9, label %17

9:                                                ; preds = %1
  %10 = load ptr, ptr %4, align 8
  %11 = getelementptr inbounds nuw %"struct.(anonymous namespace)::StaticDiagInfoRec", ptr %10, i32 0, i32 1
  %12 = load i32, ptr %11, align 2
  %13 = lshr i32 %12, 3
  %14 = and i32 %13, 7
  %15 = trunc i32 %14 to i8
  %16 = zext i8 %15 to i32
  store i32 %16, ptr %2, align 4
  br label %18

17:                                               ; preds = %1
  store i32 -1, ptr %2, align 4
  br label %18

18:                                               ; preds = %17, %9
  %19 = load i32, ptr %2, align 4
  ret i32 %19
}

; Function Attrs: mustprogress nounwind uwtable
define linkonce_odr hidden noundef i32 @_ZNK5clang4diag14CustomDiagInfo8getLevelEj(ptr noundef nonnull align 8 dereferenceable(72) %0, i32 noundef %1) #0 comdat align 2 {
  %3 = alloca ptr, align 8
  %4 = alloca i32, align 4
  store ptr %0, ptr %3, align 8
  store i32 %1, ptr %4, align 4
  %5 = load ptr, ptr %3, align 8
  %6 = getelementptr inbounds nuw %"class.clang::diag::CustomDiagInfo", ptr %5, i32 0, i32 0
  %7 = load i32, ptr %4, align 4
  %8 = sub i32 %7, 8820
  %9 = zext i32 %8 to i64
  %10 = call noundef nonnull align 8 dereferenceable(40) ptr @_ZNKSt6vectorISt4pairIN5clang13DiagnosticIDs5LevelENSt7__cxx1112basic_stringIcSt11char_traitsIcESaIcEEEESaISA_EEixEm(ptr noundef nonnull align 8 dereferenceable(24) %6, i64 noundef %9) #11
  %11 = getelementptr inbounds nuw %"struct.std::pair", ptr %10, i32 0, i32 0
  %12 = load i32, ptr %11, align 8
  ret i32 %12
}

; Function Attrs: mustprogress nounwind uwtable
define linkonce_odr hidden noundef ptr @_ZNKSt10unique_ptrIN5clang4diag14CustomDiagInfoESt14default_deleteIS2_EEptEv(ptr noundef nonnull align 8 dereferenceable(8) %0) #0 comdat align 2 {
  %2 = alloca ptr, align 8
  store ptr %0, ptr %2, align 8
  %3 = load ptr, ptr %2, align 8
  %4 = call noundef ptr @_ZNKSt10unique_ptrIN5clang4diag14CustomDiagInfoESt14default_deleteIS2_EE3getEv(ptr noundef nonnull align 8 dereferenceable(8) %3) #11
  ret ptr %4
}

; Function Attrs: mustprogress nounwind willreturn memory(read) uwtable
define dso_local noundef i32 @_ZNK5clang13DiagnosticIDs18getDiagnosticLevelEjNS_14SourceLocationERKNS_17DiagnosticsEngineE(ptr noundef nonnull align 8 dereferenceable(16) %0, i32 noundef %1, i32 %2, ptr noundef nonnull align 8 dereferenceable(1304) %3) #4 align 2 {
  %5 = alloca i32, align 4
  %6 = alloca %"class.clang::SourceLocation", align 4
  %7 = alloca ptr, align 8
  %8 = alloca i32, align 4
  %9 = alloca ptr, align 8
  %10 = alloca i32, align 4
  %11 = alloca %"class.clang::SourceLocation", align 4
  %12 = getelementptr inbounds nuw %"class.clang::SourceLocation", ptr %6, i32 0, i32 0
  store i32 %2, ptr %12, align 4
  store ptr %0, ptr %7, align 8
  store i32 %1, ptr %8, align 4
  store ptr %3, ptr %9, align 8
  %13 = load ptr, ptr %7, align 8
  %14 = load i32, ptr %8, align 4
  %15 = icmp uge i32 %14, 8820
  br i1 %15, label %16, label %21

16:                                               ; preds = %4
  %17 = getelementptr inbounds nuw %"class.clang::DiagnosticIDs", ptr %13, i32 0, i32 1
  %18 = call noundef ptr @_ZNKSt10unique_ptrIN5clang4diag14CustomDiagInfoESt14default_deleteIS2_EEptEv(ptr noundef nonnull align 8 dereferenceable(8) %17) #11
  %19 = load i32, ptr %8, align 4
  %20 = call noundef i32 @_ZNK5clang4diag14CustomDiagInfo8getLevelEj(ptr noundef nonnull align 8 dereferenceable(72) %18, i32 noundef %19)
  store i32 %20, ptr %5, align 4
  br label %34

21:                                               ; preds = %4
  %22 = load i32, ptr %8, align 4
  %23 = call noundef i32 @_ZL19getBuiltinDiagClassj(i32 noundef %22)
  store i32 %23, ptr %10, align 4
  %24 = load i32, ptr %10, align 4
  %25 = icmp eq i32 %24, 1
  br i1 %25, label %26, label %27

26:                                               ; preds = %21
  store i32 1, ptr %5, align 4
  br label %34

27:                                               ; preds = %21
  %28 = load i32, ptr %8, align 4
  call void @llvm.memcpy.p0.p0.i64(ptr align 4 %11, ptr align 4 %6, i64 4, i1 false)
  %29 = load ptr, ptr %9, align 8
  %30 = getelementptr inbounds nuw %"class.clang::SourceLocation", ptr %11, i32 0, i32 0
  %31 = load i32, ptr %30, align 4
  %32 = call noundef i32 @_ZNK5clang13DiagnosticIDs21getDiagnosticSeverityEjNS_14SourceLocationERKNS_17DiagnosticsEngineE(ptr noundef nonnull align 8 dereferenceable(16) %13, i32 noundef %28, i32 %31, ptr noundef nonnull align 8 dereferenceable(1304) %29) #13
  %33 = call noundef i32 @_ZL7toLevelN5clang4diag8SeverityE(i32 noundef %32)
  store i32 %33, ptr %5, align 4
  br label %34

34:                                               ; preds = %27, %26, %16
  %35 = load i32, ptr %5, align 4
  ret i32 %35
}