; Function Attrs: mustprogress nofree nounwind willreturn memory(read) uwtable
define dso_local noundef i32 @_ZNK5clang13DiagnosticIDs18getDiagnosticLevelEjNS_14SourceLocationERKNS_17DiagnosticsEngineE(ptr nocapture noundef nonnull readonly align 8 dereferenceable(16) %0, i32 noundef %1, i32 %2, ptr noundef nonnull align 8 dereferenceable(1304) %3) local_unnamed_addr #7 align 2 {
  %5 = icmp ugt i32 %1, 8819
  br i1 %5, label %6, label %14

6:                                                ; preds = %4
  %7 = getelementptr inbounds nuw i8, ptr %0, i64 8
  %8 = load ptr, ptr %7, align 8
  %9 = add i32 %1, -8820
  %10 = zext i32 %9 to i64
  %11 = load ptr, ptr %8, align 8
  %12 = getelementptr inbounds %"struct.std::pair", ptr %11, i64 %10
  %13 = load i32, ptr %12, align 8
  br label %_ZL7toLevelN5clang4diag8SeverityE.exit

14:                                               ; preds = %4
  %15 = tail call fastcc noundef ptr @_ZL11GetDiagInfoj(i32 noundef %1)
  %.not.i = icmp eq ptr %15, null
  br i1 %.not.i, label %_ZL19getBuiltinDiagClassj.exit.thread, label %_ZL19getBuiltinDiagClassj.exit

_ZL19getBuiltinDiagClassj.exit:                   ; preds = %14
  %16 = getelementptr inbounds nuw i8, ptr %15, i64 2
  %17 = load i32, ptr %16, align 2
  %18 = and i32 %17, 56
  %19 = icmp eq i32 %18, 8
  br i1 %19, label %_ZL7toLevelN5clang4diag8SeverityE.exit, label %_ZL19getBuiltinDiagClassj.exit.thread

_ZL19getBuiltinDiagClassj.exit.thread:            ; preds = %14, %_ZL19getBuiltinDiagClassj.exit
  %20 = tail call noundef i32 @_ZNK5clang13DiagnosticIDs21getDiagnosticSeverityEjNS_14SourceLocationERKNS_17DiagnosticsEngineE(ptr nonnull align 8 poison, i32 noundef %1, i32 %2, ptr noundef nonnull align 8 dereferenceable(1304) %3) #25
  %switch.tableidx = add nsw i32 %20, -1
  %21 = sext i32 %switch.tableidx to i64
  %switch.gep = getelementptr inbounds [5 x i32], ptr @switch.table._ZNK5clang13DiagnosticIDs18getDiagnosticLevelEjNS_14SourceLocationERKNS_17DiagnosticsEngineE, i64 0, i64 %21
  %switch.load = load i32, ptr %switch.gep, align 4
  br label %_ZL7toLevelN5clang4diag8SeverityE.exit

_ZL7toLevelN5clang4diag8SeverityE.exit:           ; preds = %_ZL19getBuiltinDiagClassj.exit.thread, %_ZL19getBuiltinDiagClassj.exit, %6
  %.0 = phi i32 [ %13, %6 ], [ 1, %_ZL19getBuiltinDiagClassj.exit ], [ %switch.load, %_ZL19getBuiltinDiagClassj.exit.thread ]
  ret i32 %.0
}